target datalayout = "e-m:e-p270:32:32-p271:32:32-p272:64:64-i64:64-i128:128-f80:128-n8:16:32:64-S128"
target triple = "x86_64-pc-linux-gnu"

@.str = private unnamed_addr constant [13 x i8] c"local-dialog\00", align 1
@.str.227 = private unnamed_addr constant [28 x i8] c"plugins/darkroom/panel_swap\00", align 1

; Function Attrs: nounwind uwtable
define internal void @preferences_response_callback_idm2610(ptr noundef %0, i32 noundef %1, ptr noundef %2) #0 {
  %4 = alloca ptr, align 8
  %5 = alloca i32, align 4
  %6 = alloca ptr, align 8
  %7 = alloca i32, align 4
  %8 = alloca i32, align 4
  store ptr %0, ptr %4, align 8, !tbaa !62
  store i32 %1, ptr %5, align 4, !tbaa !57
  store ptr %2, ptr %6, align 8, !tbaa !6
  call void @llvm.lifetime.start.p0(i64 4, ptr %7) #10
  %9 = load ptr, ptr %4, align 8, !tbaa !62
  %10 = call ptr @g_type_check_instance_cast(ptr noundef %9, i64 noundef 80)
  %11 = call ptr @g_object_get_data(ptr noundef %10, ptr noundef @.str)
  %12 = ptrtoint ptr %11 to i64
  %13 = trunc i64 %12 to i32
  store i32 %13, ptr %7, align 4, !tbaa !57
  %14 = load i32, ptr %7, align 4, !tbaa !57
  %15 = icmp ne i32 %14, 0
  br i1 %15, label %16, label %25

16:                                               ; preds = %3
  %17 = load i32, ptr %5, align 4, !tbaa !57
  %18 = icmp eq i32 %17, -1
  br i1 %18, label %19, label %20

19:                                               ; preds = %16
  store i32 1, ptr %8, align 4
  br label %41

20:                                               ; preds = %16
  %21 = load i32, ptr %5, align 4, !tbaa !57
  %22 = icmp eq i32 %21, -4
  br i1 %22, label %23, label %24

23:                                               ; preds = %20
  store i32 1, ptr %8, align 4
  br label %41

24:                                               ; preds = %20
  br label %30

25:                                               ; preds = %3
  %26 = load i32, ptr %5, align 4, !tbaa !57
  %27 = icmp ne i32 %26, -4
  br i1 %27, label %28, label %29

28:                                               ; preds = %25
  store i32 1, ptr %8, align 4
  br label %41

29:                                               ; preds = %25
  br label %30

30:                                               ; preds = %29, %24
  %31 = load ptr, ptr %4, align 8, !tbaa !62
  %32 = call i64 @gtk_widget_get_type() #11
  %33 = call ptr @g_type_check_instance_cast(ptr noundef %31, i64 noundef %32)
  call void @gtk_widget_set_can_focus(ptr noundef %33, i32 noundef 1)
  %34 = load ptr, ptr %4, align 8, !tbaa !62
  %35 = call i64 @gtk_widget_get_type() #11
  %36 = call ptr @g_type_check_instance_cast(ptr noundef %34, i64 noundef %35)
  call void @gtk_widget_grab_focus(ptr noundef %36)
  %37 = load ptr, ptr %6, align 8, !tbaa !6
  %38 = call i64 @gtk_toggle_button_get_type() #11
  %39 = call ptr @g_type_check_instance_cast(ptr noundef %37, i64 noundef %38)
  %40 = call i32 @gtk_toggle_button_get_active(ptr noundef %39)
  call void @dt_conf_set_bool(ptr noundef @.str.227, i32 noundef %40)
  store i32 0, ptr %8, align 4
  br label %41

41:                                               ; preds = %30, %28, %23, %19
  call void @llvm.lifetime.end.p0(i64 4, ptr %7) #10
  %42 = load i32, ptr %8, align 4
  switch i32 %42, label %44 [
    i32 0, label %43
    i32 1, label %43
  ]

43:                                               ; preds = %41, %41
  ret void

44:                                               ; preds = %41
  unreachable
}